; Function Attrs: null_pointer_is_valid sspstrong uwtable
define internal i32 @dissect_dsarsp(ptr noundef %0, ptr noundef %1, ptr noundef %2, ptr readnone captures(none) %3) #0 {
  %5 = alloca i32, align 4
  %6 = alloca i32, align 4
  call void @llvm.lifetime.start.p0(i64 4, ptr nonnull %5) #6
  call void @llvm.lifetime.start.p0(i64 4, ptr nonnull %6) #6
  %7 = load i32, ptr @proto_docsis_dsarsp, align 4
  %8 = tail call ptr @proto_tree_add_item(ptr noundef %2, i32 noundef %7, ptr noundef %0, i32 noundef 0, i32 noundef -1, i32 noundef 0)
  %9 = load i32, ptr @ett_docsis_dsarsp, align 4
  %10 = tail call ptr @proto_item_add_subtree(ptr noundef %8, i32 noundef %9)
  %11 = load i32, ptr @hf_docsis_mgt_tranid, align 4
  %12 = call ptr @proto_tree_add_item_ret_uint(ptr noundef %10, i32 noundef %11, ptr noundef %0, i32 noundef 0, i32 noundef 2, i32 noundef 0, ptr noundef nonnull %5)
  %13 = load i32, ptr @hf_docsis_dsarsp_response, align 4
  %14 = call ptr @proto_tree_add_item_ret_uint(ptr noundef %10, i32 noundef %13, ptr noundef %0, i32 noundef 2, i32 noundef 1, i32 noundef 0, ptr noundef nonnull %6)
  %15 = getelementptr inbounds nuw i8, ptr %1, i64 8
  %16 = load ptr, ptr %15, align 8
  %17 = load i32, ptr %5, align 4
  %18 = load i32, ptr %6, align 4
  %19 = call ptr @val_to_str_ext(i32 noundef %18, ptr noundef nonnull @docsis_conf_code_ext, ptr noundef nonnull @.str.2033)
  call void (ptr, i32, ptr, ...) @col_add_fstr(ptr noundef %16, i32 noundef 25, ptr noundef nonnull @.str.2178, i32 noundef %17, ptr noundef %19)
  %20 = call ptr @tvb_new_subset_remaining(ptr noundef %0, i32 noundef 3)
  %21 = load ptr, ptr @docsis_tlv_handle, align 8
  %22 = call i32 @call_dissector(ptr noundef %21, ptr noundef %20, ptr noundef %1, ptr noundef %10)
  %23 = call i32 @tvb_captured_length(ptr noundef %0)
  call void @llvm.lifetime.end.p0(i64 4, ptr nonnull %6) #6
  call void @llvm.lifetime.end.p0(i64 4, ptr nonnull %5) #6
  ret i32 %23
}